target datalayout = "e-m:e-p270:32:32-p271:32:32-p272:64:64-i64:64-i128:128-f80:128-n8:16:32:64-S128"
target triple = "x86_64-unknown-linux-gnu"

%class.btSimulationIslandManager = type <{ ptr, %class.btUnionFind, %class.btAlignedObjectArray.0, %class.btAlignedObjectArray.4, i8, [7 x i8] }>
%class.btUnionFind = type { %class.btAlignedObjectArray }
%class.btAlignedObjectArray = type <{ %class.btAlignedAllocator, [3 x i8], i32, i32, [4 x i8], ptr, i8, [7 x i8] }>
%class.btAlignedAllocator = type { i8 }
%class.btAlignedObjectArray.0 = type <{ %class.btAlignedAllocator.1, [3 x i8], i32, i32, [4 x i8], ptr, i8, [7 x i8] }>
%class.btAlignedAllocator.1 = type { i8 }
%class.btAlignedObjectArray.4 = type <{ %class.btAlignedAllocator.5, [3 x i8], i32, i32, [4 x i8], ptr, i8, [7 x i8] }>
%class.btAlignedAllocator.5 = type { i8 }

; Function Attrs: mustprogress uwtable
define linkonce_odr dso_local void @_ZN18btAlignedAllocatorIP20btPersistentManifoldLj16EE10deallocateEPS1_(ptr noundef nonnull align 1 dereferenceable(1) %this, ptr noundef %ptr) #2 comdat align 2 {
entry:
  %this.addr = alloca ptr, align 8
  %ptr.addr = alloca ptr, align 8
  store ptr %this, ptr %this.addr, align 8
  store ptr %ptr, ptr %ptr.addr, align 8
  %0 = load ptr, ptr %ptr.addr, align 8
  call void @_Z21btAlignedFreeInternalPv(ptr noundef %0)
  ret void
}

; Function Attrs: mustprogress uwtable
define linkonce_odr dso_local void @_ZN20btAlignedObjectArrayIP20btPersistentManifoldE10deallocateEv(ptr noundef nonnull align 8 dereferenceable(25) %this) #2 comdat align 2 {
entry:
  %this.addr = alloca ptr, align 8
  store ptr %this, ptr %this.addr, align 8
  %this1 = load ptr, ptr %this.addr, align 8
  %m_data = getelementptr inbounds %class.btAlignedObjectArray.0, ptr %this1, i32 0, i32 5
  %0 = load ptr, ptr %m_data, align 8
  %tobool = icmp ne ptr %0, null
  br i1 %tobool, label %if.then, label %if.end6

if.then:                                          ; preds = %entry
  %m_ownsMemory = getelementptr inbounds %class.btAlignedObjectArray.0, ptr %this1, i32 0, i32 6
  %1 = load i8, ptr %m_ownsMemory, align 8
  %tobool2 = trunc i8 %1 to i1
  br i1 %tobool2, label %if.then3, label %if.end

if.then3:                                         ; preds = %if.then
  %m_allocator = getelementptr inbounds %class.btAlignedObjectArray.0, ptr %this1, i32 0, i32 0
  %m_data4 = getelementptr inbounds %class.btAlignedObjectArray.0, ptr %this1, i32 0, i32 5
  %2 = load ptr, ptr %m_data4, align 8
  call void @_ZN18btAlignedAllocatorIP20btPersistentManifoldLj16EE10deallocateEPS1_(ptr noundef nonnull align 1 dereferenceable(1) %m_allocator, ptr noundef %2)
  br label %if.end

if.end:                                           ; preds = %if.then3, %if.then
  %m_data5 = getelementptr inbounds %class.btAlignedObjectArray.0, ptr %this1, i32 0, i32 5
  store ptr null, ptr %m_data5, align 8
  br label %if.end6

if.end6:                                          ; preds = %if.end, %entry
  ret void
}

; Function Attrs: mustprogress nounwind uwtable
define linkonce_odr dso_local void @_ZN20btAlignedObjectArrayIP20btPersistentManifoldE7destroyEii(ptr noundef nonnull align 8 dereferenceable(25) %this, i32 noundef %first, i32 noundef %last) #1 comdat align 2 {
entry:
  %this.addr = alloca ptr, align 8
  %first.addr = alloca i32, align 4
  %last.addr = alloca i32, align 4
  %i = alloca i32, align 4
  store ptr %this, ptr %this.addr, align 8
  store i32 %first, ptr %first.addr, align 4
  store i32 %last, ptr %last.addr, align 4
  %0 = load i32, ptr %first.addr, align 4
  store i32 %0, ptr %i, align 4
  br label %for.cond

for.cond:                                         ; preds = %for.inc, %entry
  %1 = load i32, ptr %i, align 4
  %2 = load i32, ptr %last.addr, align 4
  %cmp = icmp slt i32 %1, %2
  br i1 %cmp, label %for.body, label %for.end

for.body:                                         ; preds = %for.cond
  br label %for.inc

for.inc:                                          ; preds = %for.body
  %3 = load i32, ptr %i, align 4
  %inc = add nsw i32 %3, 1
  store i32 %inc, ptr %i, align 4
  br label %for.cond, !llvm.loop !23

for.end:                                          ; preds = %for.cond
  ret void
}

; Function Attrs: mustprogress nounwind uwtable
define linkonce_odr dso_local noundef i32 @_ZNK20btAlignedObjectArrayIP20btPersistentManifoldE4sizeEv(ptr noundef nonnull align 8 dereferenceable(25) %this) #1 comdat align 2 {
entry:
  %this.addr = alloca ptr, align 8
  store ptr %this, ptr %this.addr, align 8
  %this1 = load ptr, ptr %this.addr, align 8
  %m_size = getelementptr inbounds %class.btAlignedObjectArray.0, ptr %this1, i32 0, i32 2
  %0 = load i32, ptr %m_size, align 4
  ret i32 %0
}

; Function Attrs: noreturn nounwind uwtable
define linkonce_odr hidden void @__clang_call_terminate(ptr noundef %0) #6 comdat {
  %2 = call ptr @__cxa_begin_catch(ptr %0) #7
  call void @_ZSt9terminatev() #8
  unreachable
}

; Function Attrs: mustprogress uwtable
define linkonce_odr dso_local void @_ZN20btAlignedObjectArrayIP20btPersistentManifoldE5clearEv(ptr noundef nonnull align 8 dereferenceable(25) %this) #2 comdat align 2 {
entry:
  %this.addr = alloca ptr, align 8
  store ptr %this, ptr %this.addr, align 8
  %this1 = load ptr, ptr %this.addr, align 8
  %call = call noundef i32 @_ZNK20btAlignedObjectArrayIP20btPersistentManifoldE4sizeEv(ptr noundef nonnull align 8 dereferenceable(25) %this1)
  call void @_ZN20btAlignedObjectArrayIP20btPersistentManifoldE7destroyEii(ptr noundef nonnull align 8 dereferenceable(25) %this1, i32 noundef 0, i32 noundef %call)
  call void @_ZN20btAlignedObjectArrayIP20btPersistentManifoldE10deallocateEv(ptr noundef nonnull align 8 dereferenceable(25) %this1)
  call void @_ZN20btAlignedObjectArrayIP20btPersistentManifoldE4initEv(ptr noundef nonnull align 8 dereferenceable(25) %this1)
  ret void
}

; Function Attrs: mustprogress nounwind uwtable
define linkonce_odr dso_local void @_ZN20btAlignedObjectArrayIP17btCollisionObjectE4initEv(ptr noundef nonnull align 8 dereferenceable(25) %this) #1 comdat align 2 {
entry:
  %this.addr = alloca ptr, align 8
  store ptr %this, ptr %this.addr, align 8
  %this1 = load ptr, ptr %this.addr, align 8
  %m_ownsMemory = getelementptr inbounds %class.btAlignedObjectArray.4, ptr %this1, i32 0, i32 6
  store i8 1, ptr %m_ownsMemory, align 8
  %m_data = getelementptr inbounds %class.btAlignedObjectArray.4, ptr %this1, i32 0, i32 5
  store ptr null, ptr %m_data, align 8
  %m_size = getelementptr inbounds %class.btAlignedObjectArray.4, ptr %this1, i32 0, i32 2
  store i32 0, ptr %m_size, align 4
  %m_capacity = getelementptr inbounds %class.btAlignedObjectArray.4, ptr %this1, i32 0, i32 3
  store i32 0, ptr %m_capacity, align 8
  ret void
}

; Function Attrs: mustprogress nounwind uwtable
define linkonce_odr dso_local void @_ZN18btAlignedAllocatorIP17btCollisionObjectLj16EEC2Ev(ptr noundef nonnull align 1 dereferenceable(1) %this) unnamed_addr #1 comdat align 2 {
entry:
  %this.addr = alloca ptr, align 8
  store ptr %this, ptr %this.addr, align 8
  ret void
}

; Function Attrs: mustprogress nounwind uwtable
define linkonce_odr dso_local void @_ZN20btAlignedObjectArrayIP20btPersistentManifoldE4initEv(ptr noundef nonnull align 8 dereferenceable(25) %this) #1 comdat align 2 {
entry:
  %this.addr = alloca ptr, align 8
  store ptr %this, ptr %this.addr, align 8
  %this1 = load ptr, ptr %this.addr, align 8
  %m_ownsMemory = getelementptr inbounds %class.btAlignedObjectArray.0, ptr %this1, i32 0, i32 6
  store i8 1, ptr %m_ownsMemory, align 8
  %m_data = getelementptr inbounds %class.btAlignedObjectArray.0, ptr %this1, i32 0, i32 5
  store ptr null, ptr %m_data, align 8
  %m_size = getelementptr inbounds %class.btAlignedObjectArray.0, ptr %this1, i32 0, i32 2
  store i32 0, ptr %m_size, align 4
  %m_capacity = getelementptr inbounds %class.btAlignedObjectArray.0, ptr %this1, i32 0, i32 3
  store i32 0, ptr %m_capacity, align 8
  ret void
}

; Function Attrs: mustprogress nounwind uwtable
define linkonce_odr dso_local void @_ZN18btAlignedAllocatorIP20btPersistentManifoldLj16EEC2Ev(ptr noundef nonnull align 1 dereferenceable(1) %this) unnamed_addr #1 comdat align 2 {
entry:
  %this.addr = alloca ptr, align 8
  store ptr %this, ptr %this.addr, align 8
  ret void
}

; Function Attrs: mustprogress nounwind uwtable
define linkonce_odr dso_local void @_ZN20btAlignedObjectArrayIP20btPersistentManifoldED2Ev(ptr noundef nonnull align 8 dereferenceable(25) %this) unnamed_addr #1 comdat align 2 personality ptr @__gxx_personality_v0 {
entry:
  %this.addr = alloca ptr, align 8
  store ptr %this, ptr %this.addr, align 8
  %this1 = load ptr, ptr %this.addr, align 8
  invoke void @_ZN20btAlignedObjectArrayIP20btPersistentManifoldE5clearEv(ptr noundef nonnull align 8 dereferenceable(25) %this1)
          to label %invoke.cont unwind label %terminate.lpad

invoke.cont:                                      ; preds = %entry
  ret void

terminate.lpad:                                   ; preds = %entry
  %0 = landingpad { ptr, i32 }
          catch ptr null
  %1 = extractvalue { ptr, i32 } %0, 0
  call void @__clang_call_terminate(ptr %1) #8
  unreachable
}

; Function Attrs: mustprogress uwtable
define linkonce_odr dso_local void @_ZN20btAlignedObjectArrayIP17btCollisionObjectEC2Ev(ptr noundef nonnull align 8 dereferenceable(25) %this) unnamed_addr #2 comdat align 2 {
entry:
  %this.addr = alloca ptr, align 8
  store ptr %this, ptr %this.addr, align 8
  %this1 = load ptr, ptr %this.addr, align 8
  %m_allocator = getelementptr inbounds %class.btAlignedObjectArray.4, ptr %this1, i32 0, i32 0
  call void @_ZN18btAlignedAllocatorIP17btCollisionObjectLj16EEC2Ev(ptr noundef nonnull align 1 dereferenceable(1) %m_allocator)
  call void @_ZN20btAlignedObjectArrayIP17btCollisionObjectE4initEv(ptr noundef nonnull align 8 dereferenceable(25) %this1)
  ret void
}

; Function Attrs: mustprogress uwtable
define linkonce_odr dso_local void @_ZN20btAlignedObjectArrayIP20btPersistentManifoldEC2Ev(ptr noundef nonnull align 8 dereferenceable(25) %this) unnamed_addr #2 comdat align 2 {
entry:
  %this.addr = alloca ptr, align 8
  store ptr %this, ptr %this.addr, align 8
  %this1 = load ptr, ptr %this.addr, align 8
  %m_allocator = getelementptr inbounds %class.btAlignedObjectArray.0, ptr %this1, i32 0, i32 0
  call void @_ZN18btAlignedAllocatorIP20btPersistentManifoldLj16EEC2Ev(ptr noundef nonnull align 1 dereferenceable(1) %m_allocator)
  call void @_ZN20btAlignedObjectArrayIP20btPersistentManifoldE4initEv(ptr noundef nonnull align 8 dereferenceable(25) %this1)
  ret void
}

; Function Attrs: mustprogress uwtable
define dso_local void @_ZN25btSimulationIslandManagerC2Ev(ptr noundef nonnull align 8 dereferenceable(105) %this) unnamed_addr #2 align 2 personality ptr @__gxx_personality_v0 {
entry:
  %this.addr = alloca ptr, align 8
  %exn.slot = alloca ptr, align 8
  %ehselector.slot = alloca i32, align 4
  store ptr %this, ptr %this.addr, align 8
  %this1 = load ptr, ptr %this.addr, align 8
  store ptr getelementptr inbounds ({ [6 x ptr] }, ptr @_ZTV25btSimulationIslandManager, i32 0, i32 0, i32 2), ptr %this1, align 8
  %m_unionFind = getelementptr inbounds %class.btSimulationIslandManager, ptr %this1, i32 0, i32 1
  call void @_ZN11btUnionFindC1Ev(ptr noundef nonnull align 8 dereferenceable(32) %m_unionFind)
  %m_islandmanifold = getelementptr inbounds %class.btSimulationIslandManager, ptr %this1, i32 0, i32 2
  invoke void @_ZN20btAlignedObjectArrayIP20btPersistentManifoldEC2Ev(ptr noundef nonnull align 8 dereferenceable(25) %m_islandmanifold)
          to label %invoke.cont unwind label %lpad

invoke.cont:                                      ; preds = %entry
  %m_islandBodies = getelementptr inbounds %class.btSimulationIslandManager, ptr %this1, i32 0, i32 3
  invoke void @_ZN20btAlignedObjectArrayIP17btCollisionObjectEC2Ev(ptr noundef nonnull align 8 dereferenceable(25) %m_islandBodies)
          to label %invoke.cont3 unwind label %lpad2

invoke.cont3:                                     ; preds = %invoke.cont
  %m_splitIslands = getelementptr inbounds %class.btSimulationIslandManager, ptr %this1, i32 0, i32 4
  store i8 1, ptr %m_splitIslands, align 8
  ret void

lpad:                                             ; preds = %entry
  %0 = landingpad { ptr, i32 }
          cleanup
  %1 = extractvalue { ptr, i32 } %0, 0
  store ptr %1, ptr %exn.slot, align 8
  %2 = extractvalue { ptr, i32 } %0, 1
  store i32 %2, ptr %ehselector.slot, align 4
  br label %ehcleanup

lpad2:                                            ; preds = %invoke.cont
  %3 = landingpad { ptr, i32 }
          cleanup
  %4 = extractvalue { ptr, i32 } %3, 0
  store ptr %4, ptr %exn.slot, align 8
  %5 = extractvalue { ptr, i32 } %3, 1
  store i32 %5, ptr %ehselector.slot, align 4
  call void @_ZN20btAlignedObjectArrayIP20btPersistentManifoldED2Ev(ptr noundef nonnull align 8 dereferenceable(25) %m_islandmanifold) #7
  br label %ehcleanup

ehcleanup:                                        ; preds = %lpad2, %lpad
  call void @_ZN11btUnionFindD1Ev(ptr noundef nonnull align 8 dereferenceable(32) %m_unionFind) #7
  br label %eh.resume

eh.resume:                                        ; preds = %ehcleanup
  %exn = load ptr, ptr %exn.slot, align 8
  %sel = load i32, ptr %ehselector.slot, align 4
  %lpad.val = insertvalue { ptr, i32 } poison, ptr %exn, 0
  %lpad.val4 = insertvalue { ptr, i32 } %lpad.val, i32 %sel, 1
  resume { ptr, i32 } %lpad.val4
}