; Function Attrs: mustprogress uwtable
define dso_local void @_ZN25btSimulationIslandManagerC2Ev(ptr noundef nonnull align 8 dereferenceable(105) %this) unnamed_addr #0 align 2 personality ptr @__gxx_personality_v0 {
invoke.cont3:
  store ptr getelementptr inbounds ({ [6 x ptr] }, ptr @_ZTV25btSimulationIslandManager, i64 0, i32 0, i64 2), ptr %this, align 8
  %m_unionFind = getelementptr inbounds i8, ptr %this, i64 8
  tail call void @_ZN11btUnionFindC1Ev(ptr noundef nonnull align 8 dereferenceable(32) %m_unionFind)
  %m_ownsMemory.i.i = getelementptr inbounds i8, ptr %this, i64 64
  store i8 1, ptr %m_ownsMemory.i.i, align 8
  %m_data.i.i = getelementptr inbounds i8, ptr %this, i64 56
  store ptr null, ptr %m_data.i.i, align 8
  %m_size.i.i = getelementptr inbounds i8, ptr %this, i64 44
  store i32 0, ptr %m_size.i.i, align 4
  %m_capacity.i.i = getelementptr inbounds i8, ptr %this, i64 48
  store i32 0, ptr %m_capacity.i.i, align 8
  %m_ownsMemory.i.i2 = getelementptr inbounds i8, ptr %this, i64 96
  store i8 1, ptr %m_ownsMemory.i.i2, align 8
  %m_data.i.i3 = getelementptr inbounds i8, ptr %this, i64 88
  store ptr null, ptr %m_data.i.i3, align 8
  %m_size.i.i4 = getelementptr inbounds i8, ptr %this, i64 76
  store i32 0, ptr %m_size.i.i4, align 4
  %m_capacity.i.i5 = getelementptr inbounds i8, ptr %this, i64 80
  store i32 0, ptr %m_capacity.i.i5, align 8
  %m_splitIslands = getelementptr inbounds i8, ptr %this, i64 104
  store i8 1, ptr %m_splitIslands, align 8
  ret void
}